target datalayout = "e-m:e-p270:32:32-p271:32:32-p272:64:64-i64:64-i128:128-f80:128-n8:16:32:64-S128"
target triple = "x86_64-pc-linux-gnu"

%struct.SDL_vidpid_list = type { ptr, i32, i32, ptr, ptr, i32, i32, ptr, i32, ptr, i8 }

; Function Attrs: nounwind uwtable
define hidden zeroext i1 @SDL_VIDPIDInList(i16 noundef zeroext %0, i16 noundef zeroext %1, ptr noundef %2) #0 {
  %4 = alloca i1, align 1
  %5 = alloca i16, align 2
  %6 = alloca i16, align 2
  %7 = alloca ptr, align 8
  %8 = alloca i32, align 4
  %9 = alloca i32, align 4
  %10 = alloca i32, align 4
  store i16 %0, ptr %5, align 2
  store i16 %1, ptr %6, align 2
  store ptr %2, ptr %7, align 8
  call void @llvm.lifetime.start.p0(i64 4, ptr %8) #7
  call void @llvm.lifetime.start.p0(i64 4, ptr %9) #7
  %11 = load i16, ptr %5, align 2
  %12 = zext i16 %11 to i32
  %13 = shl i32 %12, 16
  %14 = load i16, ptr %6, align 2
  %15 = zext i16 %14 to i32
  %16 = or i32 %13, %15
  store i32 %16, ptr %9, align 4
  store i32 0, ptr %8, align 4
  br label %17

17:                                               ; preds = %35, %3
  %18 = load i32, ptr %8, align 4
  %19 = load ptr, ptr %7, align 8
  %20 = getelementptr inbounds nuw %struct.SDL_vidpid_list, ptr %19, i32 0, i32 5
  %21 = load i32, ptr %20, align 8
  %22 = icmp slt i32 %18, %21
  br i1 %22, label %23, label %38

23:                                               ; preds = %17
  %24 = load i32, ptr %9, align 4
  %25 = load ptr, ptr %7, align 8
  %26 = getelementptr inbounds nuw %struct.SDL_vidpid_list, ptr %25, i32 0, i32 7
  %27 = load ptr, ptr %26, align 8
  %28 = load i32, ptr %8, align 4
  %29 = sext i32 %28 to i64
  %30 = getelementptr inbounds i32, ptr %27, i64 %29
  %31 = load i32, ptr %30, align 4
  %32 = icmp eq i32 %24, %31
  br i1 %32, label %33, label %34

33:                                               ; preds = %23
  store i1 false, ptr %4, align 1
  store i32 1, ptr %10, align 4
  br label %61

34:                                               ; preds = %23
  br label %35

35:                                               ; preds = %34
  %36 = load i32, ptr %8, align 4
  %37 = add nsw i32 %36, 1
  store i32 %37, ptr %8, align 4
  br label %17, !llvm.loop !41

38:                                               ; preds = %17
  store i32 0, ptr %8, align 4
  br label %39

39:                                               ; preds = %57, %38
  %40 = load i32, ptr %8, align 4
  %41 = load ptr, ptr %7, align 8
  %42 = getelementptr inbounds nuw %struct.SDL_vidpid_list, ptr %41, i32 0, i32 1
  %43 = load i32, ptr %42, align 8
  %44 = icmp slt i32 %40, %43
  br i1 %44, label %45, label %60

45:                                               ; preds = %39
  %46 = load i32, ptr %9, align 4
  %47 = load ptr, ptr %7, align 8
  %48 = getelementptr inbounds nuw %struct.SDL_vidpid_list, ptr %47, i32 0, i32 3
  %49 = load ptr, ptr %48, align 8
  %50 = load i32, ptr %8, align 4
  %51 = sext i32 %50 to i64
  %52 = getelementptr inbounds i32, ptr %49, i64 %51
  %53 = load i32, ptr %52, align 4
  %54 = icmp eq i32 %46, %53
  br i1 %54, label %55, label %56

55:                                               ; preds = %45
  store i1 true, ptr %4, align 1
  store i32 1, ptr %10, align 4
  br label %61

56:                                               ; preds = %45
  br label %57

57:                                               ; preds = %56
  %58 = load i32, ptr %8, align 4
  %59 = add nsw i32 %58, 1
  store i32 %59, ptr %8, align 4
  br label %39, !llvm.loop !42

60:                                               ; preds = %39
  store i1 false, ptr %4, align 1
  store i32 1, ptr %10, align 4
  br label %61

61:                                               ; preds = %60, %55, %33
  call void @llvm.lifetime.end.p0(i64 4, ptr %9) #7
  call void @llvm.lifetime.end.p0(i64 4, ptr %8) #7
  %62 = load i1, ptr %4, align 1
  ret i1 %62
}