; Function Attrs: nofree norecurse nosync nounwind memory(read, inaccessiblemem: none) uwtable
define hidden noundef zeroext i1 @SDL_VIDPIDInList(i16 noundef zeroext %0, i16 noundef zeroext %1, ptr noundef readonly captures(none) %2) local_unnamed_addr #11 {
  %4 = zext i16 %0 to i32
  %5 = shl nuw i32 %4, 16
  %6 = zext i16 %1 to i32
  %7 = or disjoint i32 %5, %6
  %8 = getelementptr inbounds nuw i8, ptr %2, i64 32
  %9 = load i32, ptr %8, align 8
  %10 = icmp sgt i32 %9, 0
  br i1 %10, label %.lr.ph, label %.preheader

.lr.ph:                                           ; preds = %3
  %11 = getelementptr inbounds nuw i8, ptr %2, i64 40
  %12 = load ptr, ptr %11, align 8
  %wide.trip.count = zext nneg i32 %9 to i64
  br label %19

13:                                               ; preds = %19
  %indvars.iv.next = add nuw nsw i64 %indvars.iv, 1
  %exitcond.not = icmp eq i64 %indvars.iv.next, %wide.trip.count
  br i1 %exitcond.not, label %.preheader, label %19, !llvm.loop !17

.preheader:                                       ; preds = %13, %3
  %14 = getelementptr inbounds nuw i8, ptr %2, i64 8
  %15 = load i32, ptr %14, align 8
  %16 = icmp sgt i32 %15, 0
  br i1 %16, label %.lr.ph18, label %.loopexit

.lr.ph18:                                         ; preds = %.preheader
  %17 = getelementptr inbounds nuw i8, ptr %2, i64 16
  %18 = load ptr, ptr %17, align 8
  %wide.trip.count26 = zext nneg i32 %15 to i64
  br label %23

19:                                               ; preds = %.lr.ph, %13
  %indvars.iv = phi i64 [ 0, %.lr.ph ], [ %indvars.iv.next, %13 ]
  %20 = getelementptr inbounds nuw i32, ptr %12, i64 %indvars.iv
  %21 = load i32, ptr %20, align 4
  %22 = icmp eq i32 %7, %21
  br i1 %22, label %.loopexit, label %13

23:                                               ; preds = %23, %.lr.ph18
  %indvars.iv23 = phi i64 [ 0, %.lr.ph18 ], [ %indvars.iv.next24, %23 ]
  %24 = getelementptr inbounds nuw i32, ptr %18, i64 %indvars.iv23
  %25 = load i32, ptr %24, align 4
  %26 = icmp eq i32 %7, %25
  %indvars.iv.next24 = add nuw nsw i64 %indvars.iv23, 1
  %exitcond27.not = icmp eq i64 %indvars.iv.next24, %wide.trip.count26
  %or.cond = select i1 %26, i1 true, i1 %exitcond27.not
  br i1 %or.cond, label %.loopexit, label %23, !llvm.loop !18

.loopexit:                                        ; preds = %19, %23, %.preheader
  %.0 = phi i1 [ false, %.preheader ], [ %26, %23 ], [ false, %19 ]
  ret i1 %.0
}